; Function Attrs: mustprogress nofree norecurse nosync nounwind willreturn memory(none) uwtable
define noundef i64 @_ZN8facebook5velox6memory9MmapArena10roundBytesEm(i64 noundef %bytes) local_unnamed_addr #0 align 2 {
entry:
  %cmp.i = icmp eq i64 %bytes, 0
  br i1 %cmp.i, label %_ZN8facebook5velox4bits14nextPowerOfTwoEm.exit, label %if.end.i

if.end.i:                                         ; preds = %entry
  %0 = tail call i64 @llvm.ctlz.i64(i64 %bytes, i1 true), !range !4
  %sub.i = xor i64 %0, 63
  %shl.i = shl nuw i64 1, %sub.i
  %cmp1.i = icmp eq i64 %shl.i, %bytes
  %mul.i = shl i64 2, %sub.i
  %spec.select.i = select i1 %cmp1.i, i64 %bytes, i64 %mul.i
  br label %_ZN8facebook5velox4bits14nextPowerOfTwoEm.exit

_ZN8facebook5velox4bits14nextPowerOfTwoEm.exit:   ; preds = %entry, %if.end.i
  %retval.0.i = phi i64 [ 0, %entry ], [ %spec.select.i, %if.end.i ]
  ret i64 %retval.0.i
}